target datalayout = "e-m:e-p270:32:32-p271:32:32-p272:64:64-i64:64-i128:128-f80:128-n8:16:32:64-S128"
target triple = "x86_64-pc-linux-gnu"

%struct.SDL_Gamepad = type { ptr, i32, ptr, i32, i32, ptr, i32, ptr, ptr, ptr, i64, ptr }

@.str.4 = private unnamed_addr constant [26 x i8] c"Parameter '%s' is invalid\00", align 1
@.str.5 = private unnamed_addr constant [8 x i8] c"gamepad\00", align 1

; Function Attrs: nounwind uwtable
define hidden ptr @SDL_GetGamepadJoystick_REAL(ptr noundef %0) #0 {
  %2 = alloca ptr, align 8
  %3 = alloca ptr, align 8
  %4 = alloca ptr, align 8
  %5 = alloca i32, align 4
  store ptr %0, ptr %3, align 8
  call void @llvm.lifetime.start.p0(i64 8, ptr %4) #8
  call void @SDL_LockJoysticks_REAL()
  %6 = load ptr, ptr %3, align 8
  %7 = call zeroext i1 @SDL_ObjectValid(ptr noundef %6, i32 noundef 5)
  br i1 %7, label %8, label %13

8:                                                ; preds = %1
  %9 = load ptr, ptr %3, align 8
  %10 = getelementptr inbounds nuw %struct.SDL_Gamepad, ptr %9, i32 0, i32 0
  %11 = load ptr, ptr %10, align 8
  %12 = call zeroext i1 @SDL_IsJoystickValid(ptr noundef %11)
  br i1 %12, label %15, label %13

13:                                               ; preds = %8, %1
  %14 = call zeroext i1 (ptr, ...) @SDL_SetError_REAL(ptr noundef @.str.4, ptr noundef @.str.5)
  call void @SDL_UnlockJoysticks_REAL()
  store ptr null, ptr %2, align 8
  store i32 1, ptr %5, align 4
  br label %20

15:                                               ; preds = %8
  %16 = load ptr, ptr %3, align 8
  %17 = getelementptr inbounds nuw %struct.SDL_Gamepad, ptr %16, i32 0, i32 0
  %18 = load ptr, ptr %17, align 8
  store ptr %18, ptr %4, align 8
  call void @SDL_UnlockJoysticks_REAL()
  %19 = load ptr, ptr %4, align 8
  store ptr %19, ptr %2, align 8
  store i32 1, ptr %5, align 4
  br label %20

20:                                               ; preds = %15, %13
  call void @llvm.lifetime.end.p0(i64 8, ptr %4) #8
  %21 = load ptr, ptr %2, align 8
  ret ptr %21
}

; Function Attrs: nounwind uwtable
define hidden zeroext i1 @SDL_RumbleGamepad_REAL(ptr noundef %0, i16 noundef zeroext %1, i16 noundef zeroext %2, i32 noundef %3) #0 {
  %5 = alloca i1, align 1
  %6 = alloca ptr, align 8
  %7 = alloca i16, align 2
  %8 = alloca i16, align 2
  %9 = alloca i32, align 4
  %10 = alloca ptr, align 8
  %11 = alloca i32, align 4
  store ptr %0, ptr %6, align 8
  store i16 %1, ptr %7, align 2
  store i16 %2, ptr %8, align 2
  store i32 %3, ptr %9, align 4
  call void @llvm.lifetime.start.p0(i64 8, ptr %10) #8
  %12 = load ptr, ptr %6, align 8
  %13 = call ptr @SDL_GetGamepadJoystick_REAL(ptr noundef %12)
  store ptr %13, ptr %10, align 8
  %14 = load ptr, ptr %10, align 8
  %15 = icmp ne ptr %14, null
  br i1 %15, label %17, label %16

16:                                               ; preds = %4
  store i1 false, ptr %5, align 1
  store i32 1, ptr %11, align 4
  br label %23

17:                                               ; preds = %4
  %18 = load ptr, ptr %10, align 8
  %19 = load i16, ptr %7, align 2
  %20 = load i16, ptr %8, align 2
  %21 = load i32, ptr %9, align 4
  %22 = call zeroext i1 @SDL_RumbleJoystick_REAL(ptr noundef %18, i16 noundef zeroext %19, i16 noundef zeroext %20, i32 noundef %21)
  store i1 %22, ptr %5, align 1
  store i32 1, ptr %11, align 4
  br label %23

23:                                               ; preds = %17, %16
  call void @llvm.lifetime.end.p0(i64 8, ptr %10) #8
  %24 = load i1, ptr %5, align 1
  ret i1 %24
}